target datalayout = "e-m:e-p270:32:32-p271:32:32-p272:64:64-i64:64-i128:128-f80:128-n8:16:32:64-S128"
target triple = "x86_64-pc-linux-gnu"

%struct.lv_pinyin_dict_t = type { ptr, ptr }
%struct.lv_ll_t = type { i32, ptr, ptr }
%struct._lv_ime_pinyin_t = type { %struct._lv_obj_t, ptr, ptr, ptr, %struct.lv_ll_t, ptr, [16 x i8], [8 x i8], i16, i16, i16, i16, i16, i16, [26 x i16], [26 x i16], i32 }
%struct._lv_obj_t = type { ptr, ptr, ptr, ptr, ptr, %struct.lv_area_t, i32, i16, i16 }
%struct.lv_area_t = type { i32, i32, i32, i32 }
%struct.ime_pinyin_k9_py_str_t = type { [7 x i8] }

; Function Attrs: nounwind uwtable
define internal zeroext i1 @pinyin_k9_is_valid_py(ptr noundef %0, ptr noundef %1) #0 {
  %3 = alloca i1, align 1
  %4 = alloca ptr, align 8
  %5 = alloca ptr, align 8
  %6 = alloca ptr, align 8
  %7 = alloca ptr, align 8
  %8 = alloca i8, align 1
  %9 = alloca i8, align 1
  %10 = alloca i8, align 1
  %11 = alloca i8, align 1
  %12 = alloca i32, align 4
  store ptr %0, ptr %4, align 8, !tbaa !8
  store ptr %1, ptr %5, align 8, !tbaa !14
  call void @llvm.lifetime.start.p0(i64 8, ptr %6) #6
  %13 = load ptr, ptr %4, align 8, !tbaa !8
  store ptr %13, ptr %6, align 8, !tbaa !10
  call void @llvm.lifetime.start.p0(i64 8, ptr %7) #6
  store ptr null, ptr %7, align 8, !tbaa !41
  call void @llvm.lifetime.start.p0(i64 1, ptr %8) #6
  store i8 0, ptr %8, align 1, !tbaa !16
  call void @llvm.lifetime.start.p0(i64 1, ptr %9) #6
  store i8 0, ptr %9, align 1, !tbaa !16
  call void @llvm.lifetime.start.p0(i64 1, ptr %10) #6
  store i8 0, ptr %10, align 1, !tbaa !16
  call void @llvm.lifetime.start.p0(i64 1, ptr %11) #6
  store volatile i8 0, ptr %11, align 1, !tbaa !16
  %14 = load ptr, ptr %5, align 8, !tbaa !14
  %15 = load i8, ptr %14, align 1, !tbaa !16
  %16 = sext i8 %15 to i32
  %17 = icmp eq i32 %16, 0
  br i1 %17, label %18, label %19

18:                                               ; preds = %2
  store i1 false, ptr %3, align 1
  store i32 1, ptr %12, align 4
  br label %114

19:                                               ; preds = %2
  %20 = load ptr, ptr %5, align 8, !tbaa !14
  %21 = load i8, ptr %20, align 1, !tbaa !16
  %22 = sext i8 %21 to i32
  %23 = icmp eq i32 %22, 105
  br i1 %23, label %24, label %25

24:                                               ; preds = %19
  store i1 false, ptr %3, align 1
  store i32 1, ptr %12, align 4
  br label %114

25:                                               ; preds = %19
  %26 = load ptr, ptr %5, align 8, !tbaa !14
  %27 = load i8, ptr %26, align 1, !tbaa !16
  %28 = sext i8 %27 to i32
  %29 = icmp eq i32 %28, 117
  br i1 %29, label %30, label %31

30:                                               ; preds = %25
  store i1 false, ptr %3, align 1
  store i32 1, ptr %12, align 4
  br label %114

31:                                               ; preds = %25
  %32 = load ptr, ptr %5, align 8, !tbaa !14
  %33 = load i8, ptr %32, align 1, !tbaa !16
  %34 = sext i8 %33 to i32
  %35 = icmp eq i32 %34, 118
  br i1 %35, label %36, label %37

36:                                               ; preds = %31
  store i1 false, ptr %3, align 1
  store i32 1, ptr %12, align 4
  br label %114

37:                                               ; preds = %31
  %38 = load ptr, ptr %5, align 8, !tbaa !14
  %39 = getelementptr inbounds i8, ptr %38, i64 0
  %40 = load i8, ptr %39, align 1, !tbaa !16
  %41 = sext i8 %40 to i32
  %42 = sub nsw i32 %41, 97
  %43 = trunc i32 %42 to i8
  store i8 %43, ptr %10, align 1, !tbaa !16
  %44 = load ptr, ptr %5, align 8, !tbaa !14
  %45 = call i64 @lv_strlen(ptr noundef %44)
  %46 = trunc i64 %45 to i8
  store i8 %46, ptr %9, align 1, !tbaa !16
  %47 = load ptr, ptr %6, align 8, !tbaa !10
  %48 = getelementptr inbounds nuw %struct._lv_ime_pinyin_t, ptr %47, i32 0, i32 3
  %49 = load ptr, ptr %48, align 8, !tbaa !42
  %50 = load ptr, ptr %6, align 8, !tbaa !10
  %51 = getelementptr inbounds nuw %struct._lv_ime_pinyin_t, ptr %50, i32 0, i32 15
  %52 = load i8, ptr %10, align 1, !tbaa !16
  %53 = zext i8 %52 to i64
  %54 = getelementptr inbounds nuw [26 x i16], ptr %51, i64 0, i64 %53
  %55 = load i16, ptr %54, align 2, !tbaa !12
  %56 = zext i16 %55 to i64
  %57 = getelementptr inbounds nuw %struct.lv_pinyin_dict_t, ptr %49, i64 %56
  store ptr %57, ptr %7, align 8, !tbaa !41
  %58 = load ptr, ptr %6, align 8, !tbaa !10
  %59 = getelementptr inbounds nuw %struct._lv_ime_pinyin_t, ptr %58, i32 0, i32 14
  %60 = load i8, ptr %10, align 1, !tbaa !16
  %61 = zext i8 %60 to i64
  %62 = getelementptr inbounds nuw [26 x i16], ptr %59, i64 0, i64 %61
  %63 = load i16, ptr %62, align 2, !tbaa !12
  %64 = trunc i16 %63 to i8
  store volatile i8 %64, ptr %11, align 1, !tbaa !16
  br label %65

65:                                               ; preds = %110, %37
  %66 = load volatile i8, ptr %11, align 1, !tbaa !16
  %67 = add i8 %66, -1
  store volatile i8 %67, ptr %11, align 1, !tbaa !16
  %68 = icmp ne i8 %66, 0
  br i1 %68, label %69, label %113

69:                                               ; preds = %65
  store i8 0, ptr %8, align 1, !tbaa !16
  br label %70

70:                                               ; preds = %96, %69
  %71 = load i8, ptr %8, align 1, !tbaa !16
  %72 = zext i8 %71 to i32
  %73 = load i8, ptr %9, align 1, !tbaa !16
  %74 = zext i8 %73 to i32
  %75 = icmp slt i32 %72, %74
  br i1 %75, label %76, label %99

76:                                               ; preds = %70
  %77 = load ptr, ptr %5, align 8, !tbaa !14
  %78 = load i8, ptr %8, align 1, !tbaa !16
  %79 = zext i8 %78 to i32
  %80 = sext i32 %79 to i64
  %81 = getelementptr inbounds i8, ptr %77, i64 %80
  %82 = load i8, ptr %81, align 1, !tbaa !16
  %83 = sext i8 %82 to i32
  %84 = load ptr, ptr %7, align 8, !tbaa !41
  %85 = getelementptr inbounds nuw %struct.lv_pinyin_dict_t, ptr %84, i32 0, i32 0
  %86 = load ptr, ptr %85, align 8, !tbaa !43
  %87 = load i8, ptr %8, align 1, !tbaa !16
  %88 = zext i8 %87 to i32
  %89 = sext i32 %88 to i64
  %90 = getelementptr inbounds i8, ptr %86, i64 %89
  %91 = load i8, ptr %90, align 1, !tbaa !16
  %92 = sext i8 %91 to i32
  %93 = icmp ne i32 %83, %92
  br i1 %93, label %94, label %95

94:                                               ; preds = %76
  br label %99

95:                                               ; preds = %76
  br label %96

96:                                               ; preds = %95
  %97 = load i8, ptr %8, align 1, !tbaa !16
  %98 = add i8 %97, 1
  store i8 %98, ptr %8, align 1, !tbaa !16
  br label %70, !llvm.loop !94

99:                                               ; preds = %94, %70
  %100 = load i8, ptr %9, align 1, !tbaa !16
  %101 = zext i8 %100 to i32
  %102 = icmp eq i32 %101, 1
  br i1 %102, label %109, label %103

103:                                              ; preds = %99
  %104 = load i8, ptr %8, align 1, !tbaa !16
  %105 = zext i8 %104 to i32
  %106 = load i8, ptr %9, align 1, !tbaa !16
  %107 = zext i8 %106 to i32
  %108 = icmp eq i32 %105, %107
  br i1 %108, label %109, label %110

109:                                              ; preds = %103, %99
  store i1 true, ptr %3, align 1
  store i32 1, ptr %12, align 4
  br label %114

110:                                              ; preds = %103
  %111 = load ptr, ptr %7, align 8, !tbaa !41
  %112 = getelementptr inbounds nuw %struct.lv_pinyin_dict_t, ptr %111, i32 1
  store ptr %112, ptr %7, align 8, !tbaa !41
  br label %65, !llvm.loop !95

113:                                              ; preds = %65
  store i1 false, ptr %3, align 1
  store i32 1, ptr %12, align 4
  br label %114

114:                                              ; preds = %113, %109, %36, %30, %24, %18
  call void @llvm.lifetime.end.p0(i64 1, ptr %11) #6
  call void @llvm.lifetime.end.p0(i64 1, ptr %10) #6
  call void @llvm.lifetime.end.p0(i64 1, ptr %9) #6
  call void @llvm.lifetime.end.p0(i64 1, ptr %8) #6
  call void @llvm.lifetime.end.p0(i64 8, ptr %7) #6
  call void @llvm.lifetime.end.p0(i64 8, ptr %6) #6
  %115 = load i1, ptr %3, align 1
  ret i1 %115
}

; Function Attrs: nounwind uwtable
define internal void @pinyin_k9_get_legal_py(ptr noundef %0, ptr noundef %1, ptr noundef %2) #0 {
  %4 = alloca ptr, align 8
  %5 = alloca ptr, align 8
  %6 = alloca ptr, align 8
  %7 = alloca ptr, align 8
  %8 = alloca i16, align 2
  %9 = alloca i32, align 4
  %10 = alloca [7 x i8], align 1
  %11 = alloca [7 x i32], align 16
  %12 = alloca i32, align 4
  %13 = alloca i32, align 4
  %14 = alloca i16, align 2
  %15 = alloca i32, align 4
  %16 = alloca ptr, align 8
  store ptr %0, ptr %4, align 8, !tbaa !8
  store ptr %1, ptr %5, align 8, !tbaa !14
  store ptr %2, ptr %6, align 8, !tbaa !61
  call void @llvm.lifetime.start.p0(i64 8, ptr %7) #6
  %17 = load ptr, ptr %4, align 8, !tbaa !8
  store ptr %17, ptr %7, align 8, !tbaa !10
  call void @llvm.lifetime.start.p0(i64 2, ptr %8) #6
  %18 = load ptr, ptr %5, align 8, !tbaa !14
  %19 = call i64 @lv_strlen(ptr noundef %18)
  %20 = trunc i64 %19 to i16
  store i16 %20, ptr %8, align 2, !tbaa !12
  %21 = load i16, ptr %8, align 2, !tbaa !12
  %22 = zext i16 %21 to i32
  %23 = icmp eq i32 %22, 0
  br i1 %23, label %28, label %24

24:                                               ; preds = %3
  %25 = load i16, ptr %8, align 2, !tbaa !12
  %26 = zext i16 %25 to i32
  %27 = icmp sge i32 %26, 7
  br i1 %27, label %28, label %29

28:                                               ; preds = %24, %3
  store i32 1, ptr %9, align 4
  br label %157

29:                                               ; preds = %24
  call void @llvm.lifetime.start.p0(i64 7, ptr %10) #6
  call void @llvm.memset.p0.i64(ptr align 1 %10, i8 0, i64 7, i1 false)
  call void @llvm.lifetime.start.p0(i64 28, ptr %11) #6
  call void @llvm.memset.p0.i64(ptr align 16 %11, i8 0, i64 28, i1 false)
  call void @llvm.lifetime.start.p0(i64 4, ptr %12) #6
  store i32 0, ptr %12, align 4, !tbaa !37
  call void @llvm.lifetime.start.p0(i64 4, ptr %13) #6
  store i32 0, ptr %13, align 4, !tbaa !37
  call void @llvm.lifetime.start.p0(i64 2, ptr %14) #6
  store i16 0, ptr %14, align 2, !tbaa !12
  call void @llvm.lifetime.start.p0(i64 4, ptr %15) #6
  store i32 0, ptr %15, align 4, !tbaa !37
  call void @llvm.lifetime.start.p0(i64 8, ptr %16) #6
  store ptr null, ptr %16, align 8, !tbaa !41
  %30 = load ptr, ptr %7, align 8, !tbaa !10
  %31 = getelementptr inbounds nuw %struct._lv_ime_pinyin_t, ptr %30, i32 0, i32 4
  %32 = call i32 @lv_ll_get_len(ptr noundef %31)
  store i32 %32, ptr %15, align 4, !tbaa !37
  %33 = load ptr, ptr %7, align 8, !tbaa !10
  %34 = getelementptr inbounds nuw %struct._lv_ime_pinyin_t, ptr %33, i32 0, i32 4
  %35 = call ptr @lv_ll_get_head(ptr noundef %34)
  store ptr %35, ptr %16, align 8, !tbaa !41
  br label %36

36:                                               ; preds = %143, %29
  %37 = load i32, ptr %12, align 4, !tbaa !37
  %38 = icmp ne i32 %37, -1
  br i1 %38, label %39, label %144

39:                                               ; preds = %36
  %40 = load i32, ptr %12, align 4, !tbaa !37
  %41 = load i16, ptr %8, align 2, !tbaa !12
  %42 = zext i16 %41 to i32
  %43 = icmp eq i32 %40, %42
  br i1 %43, label %44, label %87

44:                                               ; preds = %39
  %45 = load ptr, ptr %4, align 8, !tbaa !8
  %46 = getelementptr inbounds [7 x i8], ptr %10, i64 0, i64 0
  %47 = call zeroext i1 @pinyin_k9_is_valid_py(ptr noundef %45, ptr noundef %46)
  br i1 %47, label %48, label %84

48:                                               ; preds = %44
  %49 = load i16, ptr %14, align 2, !tbaa !12
  %50 = zext i16 %49 to i32
  %51 = load i32, ptr %15, align 4, !tbaa !37
  %52 = icmp uge i32 %50, %51
  br i1 %52, label %56, label %53

53:                                               ; preds = %48
  %54 = load i32, ptr %15, align 4, !tbaa !37
  %55 = icmp eq i32 %54, 0
  br i1 %55, label %56, label %65

56:                                               ; preds = %53, %48
  %57 = load ptr, ptr %7, align 8, !tbaa !10
  %58 = getelementptr inbounds nuw %struct._lv_ime_pinyin_t, ptr %57, i32 0, i32 4
  %59 = call ptr @lv_ll_ins_tail(ptr noundef %58)
  store ptr %59, ptr %16, align 8, !tbaa !41
  %60 = load ptr, ptr %16, align 8, !tbaa !41
  %61 = getelementptr inbounds nuw %struct.ime_pinyin_k9_py_str_t, ptr %60, i32 0, i32 0
  %62 = getelementptr inbounds [7 x i8], ptr %61, i64 0, i64 0
  %63 = getelementptr inbounds [7 x i8], ptr %10, i64 0, i64 0
  %64 = call ptr @lv_strcpy(ptr noundef %62, ptr noundef %63)
  br label %81

65:                                               ; preds = %53
  %66 = load i16, ptr %14, align 2, !tbaa !12
  %67 = zext i16 %66 to i32
  %68 = load i32, ptr %15, align 4, !tbaa !37
  %69 = icmp ult i32 %67, %68
  br i1 %69, label %70, label %80

70:                                               ; preds = %65
  %71 = load ptr, ptr %16, align 8, !tbaa !41
  %72 = getelementptr inbounds nuw %struct.ime_pinyin_k9_py_str_t, ptr %71, i32 0, i32 0
  %73 = getelementptr inbounds [7 x i8], ptr %72, i64 0, i64 0
  %74 = getelementptr inbounds [7 x i8], ptr %10, i64 0, i64 0
  %75 = call ptr @lv_strcpy(ptr noundef %73, ptr noundef %74)
  %76 = load ptr, ptr %7, align 8, !tbaa !10
  %77 = getelementptr inbounds nuw %struct._lv_ime_pinyin_t, ptr %76, i32 0, i32 4
  %78 = load ptr, ptr %16, align 8, !tbaa !41
  %79 = call ptr @lv_ll_get_next(ptr noundef %77, ptr noundef %78)
  store ptr %79, ptr %16, align 8, !tbaa !41
  br label %80

80:                                               ; preds = %70, %65
  br label %81

81:                                               ; preds = %80, %56
  %82 = load i16, ptr %14, align 2, !tbaa !12
  %83 = add i16 %82, 1
  store i16 %83, ptr %14, align 2, !tbaa !12
  br label %84

84:                                               ; preds = %81, %44
  %85 = load i32, ptr %12, align 4, !tbaa !37
  %86 = add nsw i32 %85, -1
  store i32 %86, ptr %12, align 4, !tbaa !37
  br label %143

87:                                               ; preds = %39
  %88 = load i32, ptr %12, align 4, !tbaa !37
  %89 = sext i32 %88 to i64
  %90 = getelementptr inbounds [7 x i32], ptr %11, i64 0, i64 %89
  %91 = load i32, ptr %90, align 4, !tbaa !37
  store i32 %91, ptr %13, align 4, !tbaa !37
  %92 = load i32, ptr %13, align 4, !tbaa !37
  %93 = sext i32 %92 to i64
  %94 = load ptr, ptr %6, align 8, !tbaa !61
  %95 = load ptr, ptr %5, align 8, !tbaa !14
  %96 = load i32, ptr %12, align 4, !tbaa !37
  %97 = sext i32 %96 to i64
  %98 = getelementptr inbounds i8, ptr %95, i64 %97
  %99 = load i8, ptr %98, align 1, !tbaa !16
  %100 = sext i8 %99 to i32
  %101 = sub nsw i32 %100, 50
  %102 = sext i32 %101 to i64
  %103 = getelementptr inbounds ptr, ptr %94, i64 %102
  %104 = load ptr, ptr %103, align 8, !tbaa !14
  %105 = call i64 @lv_strlen(ptr noundef %104)
  %106 = icmp ult i64 %93, %105
  br i1 %106, label %107, label %136

107:                                              ; preds = %87
  %108 = load ptr, ptr %6, align 8, !tbaa !61
  %109 = load ptr, ptr %5, align 8, !tbaa !14
  %110 = load i32, ptr %12, align 4, !tbaa !37
  %111 = sext i32 %110 to i64
  %112 = getelementptr inbounds i8, ptr %109, i64 %111
  %113 = load i8, ptr %112, align 1, !tbaa !16
  %114 = sext i8 %113 to i32
  %115 = sub nsw i32 %114, 50
  %116 = sext i32 %115 to i64
  %117 = getelementptr inbounds ptr, ptr %108, i64 %116
  %118 = load ptr, ptr %117, align 8, !tbaa !14
  %119 = load i32, ptr %13, align 4, !tbaa !37
  %120 = sext i32 %119 to i64
  %121 = getelementptr inbounds i8, ptr %118, i64 %120
  %122 = load i8, ptr %121, align 1, !tbaa !16
  %123 = load i32, ptr %12, align 4, !tbaa !37
  %124 = sext i32 %123 to i64
  %125 = getelementptr inbounds [7 x i8], ptr %10, i64 0, i64 %124
  store i8 %122, ptr %125, align 1, !tbaa !16
  %126 = load i32, ptr %12, align 4, !tbaa !37
  %127 = sext i32 %126 to i64
  %128 = getelementptr inbounds [7 x i32], ptr %11, i64 0, i64 %127
  %129 = load i32, ptr %128, align 4, !tbaa !37
  %130 = add nsw i32 %129, 1
  %131 = load i32, ptr %12, align 4, !tbaa !37
  %132 = sext i32 %131 to i64
  %133 = getelementptr inbounds [7 x i32], ptr %11, i64 0, i64 %132
  store i32 %130, ptr %133, align 4, !tbaa !37
  %134 = load i32, ptr %12, align 4, !tbaa !37
  %135 = add nsw i32 %134, 1
  store i32 %135, ptr %12, align 4, !tbaa !37
  br label %142

136:                                              ; preds = %87
  %137 = load i32, ptr %12, align 4, !tbaa !37
  %138 = sext i32 %137 to i64
  %139 = getelementptr inbounds [7 x i32], ptr %11, i64 0, i64 %138
  store i32 0, ptr %139, align 4, !tbaa !37
  %140 = load i32, ptr %12, align 4, !tbaa !37
  %141 = add nsw i32 %140, -1
  store i32 %141, ptr %12, align 4, !tbaa !37
  br label %142

142:                                              ; preds = %136, %107
  br label %143

143:                                              ; preds = %142, %84
  br label %36, !llvm.loop !63

144:                                              ; preds = %36
  %145 = load i16, ptr %14, align 2, !tbaa !12
  %146 = zext i16 %145 to i32
  %147 = icmp sgt i32 %146, 0
  br i1 %147, label %148, label %156

148:                                              ; preds = %144
  %149 = load ptr, ptr %7, align 8, !tbaa !10
  %150 = getelementptr inbounds nuw %struct._lv_ime_pinyin_t, ptr %149, i32 0, i32 11
  %151 = load i16, ptr %150, align 2, !tbaa !28
  %152 = add i16 %151, 1
  store i16 %152, ptr %150, align 2, !tbaa !28
  %153 = load i16, ptr %14, align 2, !tbaa !12
  %154 = load ptr, ptr %7, align 8, !tbaa !10
  %155 = getelementptr inbounds nuw %struct._lv_ime_pinyin_t, ptr %154, i32 0, i32 9
  store i16 %153, ptr %155, align 2, !tbaa !33
  br label %156

156:                                              ; preds = %148, %144
  call void @llvm.lifetime.end.p0(i64 8, ptr %16) #6
  call void @llvm.lifetime.end.p0(i64 4, ptr %15) #6
  call void @llvm.lifetime.end.p0(i64 2, ptr %14) #6
  call void @llvm.lifetime.end.p0(i64 4, ptr %13) #6
  call void @llvm.lifetime.end.p0(i64 4, ptr %12) #6
  call void @llvm.lifetime.end.p0(i64 28, ptr %11) #6
  call void @llvm.lifetime.end.p0(i64 7, ptr %10) #6
  store i32 0, ptr %9, align 4
  br label %157

157:                                              ; preds = %156, %28
  call void @llvm.lifetime.end.p0(i64 2, ptr %8) #6
  call void @llvm.lifetime.end.p0(i64 8, ptr %7) #6
  %158 = load i32, ptr %9, align 4
  switch i32 %158, label %160 [
    i32 0, label %159
    i32 1, label %159
  ]

159:                                              ; preds = %157, %157
  ret void

160:                                              ; preds = %157
  unreachable
}