; Function Attrs: nounwind uwtable
define internal fastcc void @pinyin_k9_get_legal_py(ptr noundef %0, ptr noundef %1) unnamed_addr #0 {
  %3 = alloca i8, align 1
  %4 = alloca [7 x i8], align 1
  %5 = alloca [7 x i32], align 16
  %6 = tail call i64 @lv_strlen(ptr noundef %1) #6
  %7 = trunc i64 %6 to i32
  %8 = and i32 %7, 65535
  %9 = add nsw i32 %8, -7
  %or.cond = icmp ult i32 %9, -6
  br i1 %or.cond, label %90, label %10

10:                                               ; preds = %2
  call void @llvm.lifetime.start.p0(i64 7, ptr nonnull %4) #6
  call void @llvm.memset.p0.i64(ptr noundef nonnull align 1 dereferenceable(7) %4, i8 0, i64 7, i1 false)
  call void @llvm.lifetime.start.p0(i64 28, ptr nonnull %5) #6
  call void @llvm.memset.p0.i64(ptr noundef nonnull align 16 dereferenceable(28) %5, i8 0, i64 28, i1 false)
  %11 = getelementptr inbounds nuw i8, ptr %0, i64 88
  %12 = tail call i32 @lv_ll_get_len(ptr noundef nonnull %11) #6
  %13 = tail call ptr @lv_ll_get_head(ptr noundef nonnull %11) #6
  %14 = getelementptr inbounds nuw i8, ptr %0, i64 80
  %15 = getelementptr inbounds nuw i8, ptr %0, i64 208
  %16 = getelementptr inbounds nuw i8, ptr %0, i64 156
  %17 = add nsw i32 %8, -1
  br label %18

18:                                               ; preds = %10, %82
  %.05 = phi ptr [ %13, %10 ], [ %.3, %82 ]
  %.0444 = phi i16 [ 0, %10 ], [ %.246, %82 ]
  %.0473 = phi i32 [ 0, %10 ], [ %.148, %82 ]
  %19 = icmp eq i32 %.0473, %8
  br i1 %19, label %20, label %60

20:                                               ; preds = %18
  call void @llvm.lifetime.start.p0(i64 1, ptr nonnull %3)
  store volatile i8 0, ptr %3, align 1, !tbaa !8
  %21 = load i8, ptr %4, align 1, !tbaa !8
  switch i8 %21, label %22 [
    i8 0, label %pinyin_k9_is_valid_py.exit
    i8 105, label %pinyin_k9_is_valid_py.exit
    i8 117, label %pinyin_k9_is_valid_py.exit
    i8 118, label %pinyin_k9_is_valid_py.exit
  ]

22:                                               ; preds = %20
  %23 = add i8 %21, -97
  %24 = call i64 @lv_strlen(ptr noundef nonnull %4) #6
  %25 = load ptr, ptr %14, align 8, !tbaa !25
  %26 = zext i8 %23 to i64
  %27 = getelementptr inbounds nuw [26 x i16], ptr %15, i64 0, i64 %26
  %28 = load i16, ptr %27, align 2, !tbaa !28
  %29 = zext i16 %28 to i64
  %30 = getelementptr inbounds nuw %struct.lv_pinyin_dict_t, ptr %25, i64 %29
  %31 = getelementptr inbounds nuw [26 x i16], ptr %16, i64 0, i64 %26
  %32 = load i16, ptr %31, align 2, !tbaa !28
  %33 = trunc i16 %32 to i8
  store volatile i8 %33, ptr %3, align 1, !tbaa !8
  %.0..0..0..0..0..0.36.i = load volatile i8, ptr %3, align 1, !tbaa !8
  %34 = add i8 %.0..0..0..0..0..0.36.i, -1
  store volatile i8 %34, ptr %3, align 1, !tbaa !8
  %.not37.i = icmp eq i8 %.0..0..0..0..0..0.36.i, 0
  br i1 %.not37.i, label %pinyin_k9_is_valid_py.exit, label %.preheader.lr.ph.i

.preheader.lr.ph.i:                               ; preds = %22
  %.fr47.i = freeze i64 %24
  %35 = trunc i64 %.fr47.i to i32
  %36 = and i32 %35, 255
  %.not.i = icmp eq i32 %36, 0
  br i1 %.not.i, label %.loopexit, label %.preheader.lr.ph.split.us.i

.preheader.lr.ph.split.us.i:                      ; preds = %.preheader.lr.ph.i
  %37 = icmp eq i32 %36, 1
  %38 = load i8, ptr %4, align 1, !tbaa !8
  br i1 %37, label %.loopexit, label %.preheader.us.preheader.i

.preheader.us.preheader.i:                        ; preds = %.preheader.lr.ph.split.us.i
  %wide.trip.count = and i64 %.fr47.i, 255
  br label %.preheader.us.i

.preheader.us.i:                                  ; preds = %48, %.preheader.us.preheader.i
  %.02438.us.i = phi ptr [ %49, %48 ], [ %30, %.preheader.us.preheader.i ]
  %39 = load ptr, ptr %.02438.us.i, align 8, !tbaa !29
  %40 = load i8, ptr %39, align 1, !tbaa !8
  %.not29.us43.i = icmp eq i8 %38, %40
  br i1 %.not29.us43.i, label %.lr.ph.i, label %._crit_edge.us.i

.lr.ph.i:                                         ; preds = %.preheader.us.i, %41
  %indvars.iv = phi i64 [ %indvars.iv.next, %41 ], [ 1, %.preheader.us.i ]
  %exitcond.not = icmp eq i64 %indvars.iv, %wide.trip.count
  br i1 %exitcond.not, label %._crit_edge.us.loopexit.i, label %41, !llvm.loop !52

41:                                               ; preds = %.lr.ph.i
  %42 = getelementptr inbounds nuw i8, ptr %4, i64 %indvars.iv
  %43 = load i8, ptr %42, align 1, !tbaa !8
  %44 = getelementptr inbounds nuw i8, ptr %39, i64 %indvars.iv
  %45 = load i8, ptr %44, align 1, !tbaa !8
  %.not29.us.i = icmp eq i8 %43, %45
  %indvars.iv.next = add nuw nsw i64 %indvars.iv, 1
  br i1 %.not29.us.i, label %.lr.ph.i, label %._crit_edge.us.loopexit.i, !llvm.loop !52

._crit_edge.us.loopexit.i:                        ; preds = %41, %.lr.ph.i
  %.lcssa.in = phi i64 [ %indvars.iv, %41 ], [ %.fr47.i, %.lr.ph.i ]
  %.lcssa = trunc i64 %.lcssa.in to i32
  %46 = and i32 %.lcssa, 255
  br label %._crit_edge.us.i

._crit_edge.us.i:                                 ; preds = %._crit_edge.us.loopexit.i, %.preheader.us.i
  %.lcssa30.us.i = phi i32 [ 0, %.preheader.us.i ], [ %46, %._crit_edge.us.loopexit.i ]
  %47 = icmp eq i32 %36, %.lcssa30.us.i
  br i1 %47, label %.loopexit, label %48

48:                                               ; preds = %._crit_edge.us.i
  %49 = getelementptr inbounds nuw i8, ptr %.02438.us.i, i64 16
  %.0..0..0..0..0..0..us.i = load volatile i8, ptr %3, align 1, !tbaa !8
  %50 = add i8 %.0..0..0..0..0..0..us.i, -1
  store volatile i8 %50, ptr %3, align 1, !tbaa !8
  %.not.us.i = icmp eq i8 %.0..0..0..0..0..0..us.i, 0
  br i1 %.not.us.i, label %pinyin_k9_is_valid_py.exit, label %.preheader.us.i, !llvm.loop !53

pinyin_k9_is_valid_py.exit:                       ; preds = %48, %20, %20, %20, %20, %22
  call void @llvm.lifetime.end.p0(i64 1, ptr nonnull %3)
  br label %82

.loopexit:                                        ; preds = %._crit_edge.us.i, %.preheader.lr.ph.i, %.preheader.lr.ph.split.us.i
  call void @llvm.lifetime.end.p0(i64 1, ptr nonnull %3)
  %51 = zext i16 %.0444 to i32
  %.not52 = icmp ugt i32 %12, %51
  br i1 %.not52, label %55, label %52

52:                                               ; preds = %.loopexit
  %53 = call ptr @lv_ll_ins_tail(ptr noundef nonnull %11) #6
  %54 = call ptr @lv_strcpy(ptr noundef %53, ptr noundef nonnull %4) #6
  br label %58

55:                                               ; preds = %.loopexit
  %56 = call ptr @lv_strcpy(ptr noundef %.05, ptr noundef nonnull %4) #6
  %57 = call ptr @lv_ll_get_next(ptr noundef nonnull %11, ptr noundef %.05) #6
  br label %58

58:                                               ; preds = %55, %52
  %.2 = phi ptr [ %53, %52 ], [ %57, %55 ]
  %59 = add i16 %.0444, 1
  br label %82

60:                                               ; preds = %18
  %61 = sext i32 %.0473 to i64
  %62 = getelementptr inbounds [7 x i32], ptr %5, i64 0, i64 %61
  %63 = load i32, ptr %62, align 4, !tbaa !35
  %64 = sext i32 %63 to i64
  %65 = getelementptr inbounds i8, ptr %1, i64 %61
  %66 = load i8, ptr %65, align 1, !tbaa !8
  %67 = sext i8 %66 to i64
  %gep = getelementptr ptr, ptr getelementptr (i8, ptr @lv_ime_pinyin_kb_event.k9_py_map, i64 -400), i64 %67
  %68 = load ptr, ptr %gep, align 8, !tbaa !3
  %69 = call i64 @lv_strlen(ptr noundef %68) #6
  %70 = icmp ugt i64 %69, %64
  br i1 %70, label %71, label %80

71:                                               ; preds = %60
  %72 = load i8, ptr %65, align 1, !tbaa !8
  %73 = sext i8 %72 to i64
  %gep2 = getelementptr ptr, ptr getelementptr (i8, ptr @lv_ime_pinyin_kb_event.k9_py_map, i64 -400), i64 %73
  %74 = load ptr, ptr %gep2, align 8, !tbaa !3
  %75 = getelementptr inbounds i8, ptr %74, i64 %64
  %76 = load i8, ptr %75, align 1, !tbaa !8
  %77 = getelementptr inbounds [7 x i8], ptr %4, i64 0, i64 %61
  store i8 %76, ptr %77, align 1, !tbaa !8
  %78 = add nsw i32 %63, 1
  store i32 %78, ptr %62, align 4, !tbaa !35
  %79 = add nuw nsw i32 %.0473, 1
  br label %82

80:                                               ; preds = %60
  store i32 0, ptr %62, align 4, !tbaa !35
  %81 = add nsw i32 %.0473, -1
  br label %82

82:                                               ; preds = %58, %pinyin_k9_is_valid_py.exit, %71, %80
  %.148 = phi i32 [ %79, %71 ], [ %81, %80 ], [ %17, %pinyin_k9_is_valid_py.exit ], [ %17, %58 ]
  %.246 = phi i16 [ %.0444, %71 ], [ %.0444, %80 ], [ %.0444, %pinyin_k9_is_valid_py.exit ], [ %59, %58 ]
  %.3 = phi ptr [ %.05, %71 ], [ %.05, %80 ], [ %.05, %pinyin_k9_is_valid_py.exit ], [ %.2, %58 ]
  %.not = icmp eq i32 %.148, -1
  br i1 %.not, label %83, label %18, !llvm.loop !54

83:                                               ; preds = %82
  %.not51 = icmp eq i16 %.246, 0
  br i1 %.not51, label %89, label %84

84:                                               ; preds = %83
  %85 = getelementptr inbounds nuw i8, ptr %0, i64 150
  %86 = load i16, ptr %85, align 2, !tbaa !23
  %87 = add i16 %86, 1
  store i16 %87, ptr %85, align 2, !tbaa !23
  %88 = getelementptr inbounds nuw i8, ptr %0, i64 146
  store i16 %.246, ptr %88, align 2, !tbaa !33
  br label %89

89:                                               ; preds = %84, %83
  call void @llvm.lifetime.end.p0(i64 28, ptr nonnull %5) #6
  call void @llvm.lifetime.end.p0(i64 7, ptr nonnull %4) #6
  br label %90

90:                                               ; preds = %2, %89
  ret void
}